target datalayout = "e-m:e-p270:32:32-p271:32:32-p272:64:64-i64:64-i128:128-f80:128-n8:16:32:64-S128"
target triple = "x86_64-pc-linux-gnu"

%struct.darktable_t = type { %struct.dt_codepath_t, i32, i32, ptr, ptr, ptr, ptr, ptr, ptr, ptr, ptr, ptr, ptr, ptr, ptr, ptr, ptr, ptr, ptr, ptr, ptr, ptr, ptr, ptr, ptr, ptr, ptr, ptr, ptr, ptr, [64 x %struct.dt_pthread_mutex_t], %struct.dt_pthread_mutex_t, %struct.dt_pthread_mutex_t, %struct.dt_pthread_mutex_t, %struct.dt_pthread_mutex_t, %struct.dt_pthread_mutex_t, ptr, ptr, ptr, ptr, ptr, ptr, ptr, ptr, ptr, ptr, ptr, ptr, ptr, %struct.dt_lua_state_t, ptr, double, ptr, i32, [47 x i32], i32, i32, ptr, ptr, %struct.dt_sys_resources_t, %struct.dt_backthumb_t, %struct.dt_gimp_t }
%struct.dt_codepath_t = type { i8, [3 x i8] }
%struct.dt_pthread_mutex_t = type { %union.pthread_mutex_t }
%union.pthread_mutex_t = type { %struct.__pthread_mutex_s }
%struct.__pthread_mutex_s = type { i32, i32, i32, i32, i32, i16, i16, %struct.__pthread_internal_list }
%struct.__pthread_internal_list = type { ptr, ptr }
%struct.dt_lua_state_t = type { i32 }
%struct.dt_sys_resources_t = type { i64, i64, ptr, ptr, i32 }
%struct.dt_backthumb_t = type { double, double, i32, i32, i32, i32 }
%struct.dt_gimp_t = type { i32, ptr, ptr, i32, i32 }
%struct.dt_lib_module_t = type { %struct.dt_action_t, ptr, ptr, ptr, ptr, ptr, ptr, ptr, ptr, ptr, ptr, ptr, ptr, ptr, ptr, ptr, ptr, ptr, ptr, ptr, ptr, ptr, ptr, ptr, ptr, ptr, ptr, ptr, ptr, ptr, ptr, [128 x i8], ptr, ptr, i32, ptr, ptr, ptr, i32 }
%struct.dt_action_t = type { i32, ptr, ptr, ptr, ptr, ptr }
%struct.dt_view_t = type { %struct.dt_action_t, ptr, ptr, ptr, ptr, ptr, ptr, ptr, ptr, ptr, ptr, ptr, ptr, ptr, ptr, ptr, ptr, ptr, ptr, ptr, ptr, ptr, [64 x i8], ptr, ptr, i32, i32, float, float, float, float, float, float, float, float }

@darktable = external global %struct.darktable_t, align 8
@.str.24 = private unnamed_addr constant [23 x i8] c"plugins/%s/%s/expanded\00", align 1

; Function Attrs: inlinehint nounwind uwtable
define internal ptr @DTGTK_EXPANDER(ptr noundef %0) #5 {
  %2 = alloca ptr, align 8
  store ptr %0, ptr %2, align 8, !tbaa !76
  %3 = load ptr, ptr %2, align 8, !tbaa !76
  %4 = call i64 @dtgtk_expander_get_type()
  %5 = call ptr @g_type_check_instance_cast(ptr noundef %3, i64 noundef %4)
  ret ptr %5
}

; Function Attrs: nounwind uwtable
define i32 @dt_lib_gui_get_expanded(ptr noundef %0) #0 {
  %2 = alloca i32, align 4
  %3 = alloca ptr, align 8
  %4 = alloca [1024 x i8], align 16
  %5 = alloca ptr, align 8
  store ptr %0, ptr %3, align 8, !tbaa !6
  %6 = load ptr, ptr %3, align 8, !tbaa !6
  %7 = getelementptr inbounds nuw %struct.dt_lib_module_t, ptr %6, i32 0, i32 5
  %8 = load ptr, ptr %7, align 8, !tbaa !65
  %9 = load ptr, ptr %3, align 8, !tbaa !6
  %10 = call i32 %8(ptr noundef %9)
  %11 = icmp ne i32 %10, 0
  br i1 %11, label %13, label %12

12:                                               ; preds = %1
  store i32 1, ptr %2, align 4
  br label %43

13:                                               ; preds = %1
  %14 = load ptr, ptr %3, align 8, !tbaa !6
  %15 = getelementptr inbounds nuw %struct.dt_lib_module_t, ptr %14, i32 0, i32 33
  %16 = load ptr, ptr %15, align 8, !tbaa !107
  %17 = icmp ne ptr %16, null
  br i1 %17, label %19, label %18

18:                                               ; preds = %13
  store i32 1, ptr %2, align 4
  br label %43

19:                                               ; preds = %13
  %20 = load ptr, ptr %3, align 8, !tbaa !6
  %21 = getelementptr inbounds nuw %struct.dt_lib_module_t, ptr %20, i32 0, i32 32
  %22 = load ptr, ptr %21, align 8, !tbaa !105
  %23 = icmp ne ptr %22, null
  br i1 %23, label %37, label %24

24:                                               ; preds = %19
  call void @llvm.lifetime.start.p0(i64 1024, ptr %4) #12
  call void @llvm.lifetime.start.p0(i64 8, ptr %5) #12
  %25 = load ptr, ptr getelementptr inbounds nuw (%struct.darktable_t, ptr @darktable, i32 0, i32 11), align 8, !tbaa !64
  %26 = call ptr @dt_view_manager_get_current_view(ptr noundef %25)
  store ptr %26, ptr %5, align 8, !tbaa !11
  %27 = getelementptr inbounds [1024 x i8], ptr %4, i64 0, i64 0
  %28 = load ptr, ptr %5, align 8, !tbaa !11
  %29 = getelementptr inbounds nuw %struct.dt_view_t, ptr %28, i32 0, i32 22
  %30 = getelementptr inbounds [64 x i8], ptr %29, i64 0, i64 0
  %31 = load ptr, ptr %3, align 8, !tbaa !6
  %32 = getelementptr inbounds nuw %struct.dt_lib_module_t, ptr %31, i32 0, i32 31
  %33 = getelementptr inbounds [128 x i8], ptr %32, i64 0, i64 0
  %34 = call i32 (ptr, i64, ptr, ...) @snprintf(ptr noundef %27, i64 noundef 1024, ptr noundef @.str.24, ptr noundef %30, ptr noundef %33) #12
  %35 = getelementptr inbounds [1024 x i8], ptr %4, i64 0, i64 0
  %36 = call i32 @dt_conf_get_bool(ptr noundef %35)
  store i32 %36, ptr %2, align 4
  call void @llvm.lifetime.end.p0(i64 8, ptr %5) #12
  call void @llvm.lifetime.end.p0(i64 1024, ptr %4) #12
  br label %43

37:                                               ; preds = %19
  %38 = load ptr, ptr %3, align 8, !tbaa !6
  %39 = getelementptr inbounds nuw %struct.dt_lib_module_t, ptr %38, i32 0, i32 33
  %40 = load ptr, ptr %39, align 8, !tbaa !107
  %41 = call ptr @DTGTK_EXPANDER(ptr noundef %40)
  %42 = call i32 @dtgtk_expander_get_expanded(ptr noundef %41)
  store i32 %42, ptr %2, align 4
  br label %43

43:                                               ; preds = %37, %24, %18, %12
  %44 = load i32, ptr %2, align 4
  ret i32 %44
}