; Function Attrs: nounwind uwtable
define i32 @dt_lib_gui_get_expanded(ptr noundef %0) local_unnamed_addr #0 {
  %2 = alloca [1024 x i8], align 16
  %3 = getelementptr inbounds nuw i8, ptr %0, i64 80
  %4 = load ptr, ptr %3, align 8, !tbaa !21
  %5 = tail call i32 %4(ptr noundef %0) #19
  %.not = icmp eq i32 %5, 0
  br i1 %.not, label %23, label %6

6:                                                ; preds = %1
  %7 = getelementptr inbounds nuw i8, ptr %0, i64 424
  %8 = load ptr, ptr %7, align 8, !tbaa !86
  %.not8 = icmp eq ptr %8, null
  br i1 %.not8, label %23, label %9

9:                                                ; preds = %6
  %10 = getelementptr inbounds nuw i8, ptr %0, i64 416
  %11 = load ptr, ptr %10, align 8, !tbaa !84
  %.not9 = icmp eq ptr %11, null
  br i1 %.not9, label %12, label %19

12:                                               ; preds = %9
  call void @llvm.lifetime.start.p0(i64 1024, ptr nonnull %2) #19
  %13 = load ptr, ptr getelementptr inbounds nuw (i8, ptr @darktable, i64 80), align 8, !tbaa !22
  %14 = tail call ptr @dt_view_manager_get_current_view(ptr noundef %13) #19
  %15 = getelementptr inbounds nuw i8, ptr %14, i64 216
  %16 = getelementptr inbounds nuw i8, ptr %0, i64 288
  %17 = call i32 (ptr, i64, ptr, ...) @snprintf(ptr noundef nonnull dereferenceable(1) %2, i64 noundef 1024, ptr noundef nonnull @.str.24, ptr noundef nonnull %15, ptr noundef nonnull %16) #19
  %18 = call i32 @dt_conf_get_bool(ptr noundef nonnull %2) #19
  call void @llvm.lifetime.end.p0(i64 1024, ptr nonnull %2) #19
  br label %23

19:                                               ; preds = %9
  %20 = tail call i64 @dtgtk_expander_get_type() #19
  %21 = tail call ptr @g_type_check_instance_cast(ptr noundef nonnull %8, i64 noundef %20) #19
  %22 = tail call i32 @dtgtk_expander_get_expanded(ptr noundef %21) #19
  br label %23

23:                                               ; preds = %6, %1, %19, %12
  %.0 = phi i32 [ %22, %19 ], [ %18, %12 ], [ 1, %1 ], [ 1, %6 ]
  ret i32 %.0
}